target datalayout = "e-m:e-p270:32:32-p271:32:32-p272:64:64-i64:64-i128:128-f80:128-n8:16:32:64-S128"
target triple = "x86_64-pc-linux-gnu"

%struct.SDL_Mouse = type { ptr, ptr, ptr, ptr, ptr, ptr, ptr, ptr, ptr, ptr, ptr, ptr, ptr, ptr, i8, float, float, ptr, float, float, float, float, float, float, float, float, double, double, i8, i8, i8, i8, i8, i8, i8, i8, i64, i8, float, i8, float, i8, i32, i32, i8, i8, i8, i8, i8, i8, i8, i8, i8, ptr, i32, ptr, ptr, ptr, ptr, i8, ptr }
%struct.SDL_Rect = type { i32, i32, i32, i32 }
%struct.SDL_Window = type { i32, ptr, ptr, i32, i32, i32, i32, i32, i32, i32, i32, float, float, i32, i32, i64, i64, float, i8, i8, i32, i32, %struct.SDL_Rect, %struct.SDL_Rect, %struct.SDL_Rect, i8, i8, i8, %struct.SDL_DisplayMode, %struct.SDL_DisplayMode, %struct.SDL_HDROutputProperties, float, ptr, i8, i8, i8, i8, i8, i8, i8, i8, i8, i32, i32, i32, i32, %struct.SDL_Rect, i32, i8, %struct.SDL_Rect, i32, %struct.SDL_Rect, ptr, ptr, i32, float, i32, i32, ptr, ptr, ptr, ptr, ptr, ptr, ptr, ptr, ptr }
%struct.SDL_DisplayMode = type { i32, i32, i32, i32, float, float, i32, i32, ptr }
%struct.SDL_HDROutputProperties = type { float, float }

@SDL_mouse = internal global %struct.SDL_Mouse zeroinitializer, align 8

; Function Attrs: nounwind uwtable
define hidden ptr @SDL_GetMouse() #0 {
  ret ptr @SDL_mouse
}

; Function Attrs: nounwind uwtable
define hidden void @SDL_UpdateRelativeMouseMode() #0 {
  %1 = alloca ptr, align 8
  %2 = alloca ptr, align 8
  %3 = alloca i8, align 1
  call void @llvm.lifetime.start.p0(i64 8, ptr %1) #7
  %4 = call ptr @SDL_GetMouse()
  store ptr %4, ptr %1, align 8
  call void @llvm.lifetime.start.p0(i64 8, ptr %2) #7
  %5 = call ptr @SDL_GetKeyboardFocus_REAL()
  store ptr %5, ptr %2, align 8
  call void @llvm.lifetime.start.p0(i64 1, ptr %3) #7
  %6 = load ptr, ptr %2, align 8
  %7 = icmp ne ptr %6, null
  br i1 %7, label %8, label %14

8:                                                ; preds = %0
  %9 = load ptr, ptr %2, align 8
  %10 = getelementptr inbounds nuw %struct.SDL_Window, ptr %9, i32 0, i32 15
  %11 = load i64, ptr %10, align 8
  %12 = and i64 %11, 32768
  %13 = icmp ne i64 %12, 0
  br label %14

14:                                               ; preds = %8, %0
  %15 = phi i1 [ false, %0 ], [ %13, %8 ]
  %16 = zext i1 %15 to i8
  store i8 %16, ptr %3, align 1
  %17 = load i8, ptr %3, align 1, !range !3, !noundef !4
  %18 = trunc i8 %17 to i1
  %19 = zext i1 %18 to i32
  %20 = load ptr, ptr %1, align 8
  %21 = getelementptr inbounds nuw %struct.SDL_Mouse, ptr %20, i32 0, i32 29
  %22 = load i8, ptr %21, align 1, !range !3, !noundef !4
  %23 = trunc i8 %22 to i1
  %24 = zext i1 %23 to i32
  %25 = icmp ne i32 %19, %24
  br i1 %25, label %26, label %30

26:                                               ; preds = %14
  %27 = load i8, ptr %3, align 1, !range !3, !noundef !4
  %28 = trunc i8 %27 to i1
  %29 = call zeroext i1 @SDL_SetRelativeMouseMode(i1 noundef zeroext %28)
  br label %30

30:                                               ; preds = %26, %14
  call void @llvm.lifetime.end.p0(i64 1, ptr %3) #7
  call void @llvm.lifetime.end.p0(i64 8, ptr %2) #7
  call void @llvm.lifetime.end.p0(i64 8, ptr %1) #7
  ret void
}