; Function Attrs: nounwind uwtable
define hidden void @SDL_UpdateRelativeMouseMode() local_unnamed_addr #0 {
  %1 = tail call ptr @SDL_GetKeyboardFocus_REAL() #13
  %.not = icmp eq ptr %1, null
  br i1 %.not, label %7, label %2

2:                                                ; preds = %0
  %3 = getelementptr inbounds nuw i8, ptr %1, i64 72
  %4 = load i64, ptr %3, align 8
  %5 = and i64 %4, 32768
  %6 = icmp ne i64 %5, 0
  br label %7

7:                                                ; preds = %2, %0
  %8 = phi i1 [ false, %0 ], [ %6, %2 ]
  %9 = load i8, ptr getelementptr inbounds nuw (i8, ptr @SDL_mouse, i64 185), align 1, !range !3, !noundef !4
  %10 = zext i1 %8 to i8
  %.not4 = icmp eq i8 %9, %10
  br i1 %.not4, label %13, label %11

11:                                               ; preds = %7
  %12 = tail call zeroext i1 @SDL_SetRelativeMouseMode(i1 noundef zeroext %8)
  br label %13

13:                                               ; preds = %11, %7
  ret void
}